target datalayout = "e-m:e-p270:32:32-p271:32:32-p272:64:64-i64:64-i128:128-f80:128-n8:16:32:64-S128"
target triple = "x86_64-pc-linux-gnu"

%struct.SurfaceDataRasInfo = type { %struct.SurfaceDataBounds, ptr, i32, i32, i32, i32, ptr, ptr, ptr, ptr, ptr, ptr, i32, %union.anon.0 }
%struct.SurfaceDataBounds = type { i32, i32, i32, i32 }
%union.anon.0 = type { ptr, [56 x i8] }

; Function Attrs: nounwind uwtable
define hidden void @IntArgbBmToUshort555RgbXparBgCopy(ptr noundef %0, ptr noundef %1, i32 noundef %2, i32 noundef %3, i32 noundef %4, ptr noundef %5, ptr noundef %6, ptr noundef %7, ptr noundef %8) #1 {
  %10 = alloca ptr, align 8
  %11 = alloca ptr, align 8
  %12 = alloca i32, align 4
  %13 = alloca i32, align 4
  %14 = alloca i32, align 4
  %15 = alloca ptr, align 8
  %16 = alloca ptr, align 8
  %17 = alloca ptr, align 8
  %18 = alloca ptr, align 8
  %19 = alloca ptr, align 8
  %20 = alloca ptr, align 8
  %21 = alloca i32, align 4
  %22 = alloca i32, align 4
  %23 = alloca i32, align 4
  %24 = alloca i32, align 4
  %25 = alloca i32, align 4
  store ptr %0, ptr %10, align 8
  store ptr %1, ptr %11, align 8
  store i32 %2, ptr %12, align 4
  store i32 %3, ptr %13, align 4
  store i32 %4, ptr %14, align 4
  store ptr %5, ptr %15, align 8
  store ptr %6, ptr %16, align 8
  store ptr %7, ptr %17, align 8
  store ptr %8, ptr %18, align 8
  br label %26

26:                                               ; preds = %9
  %27 = load ptr, ptr %10, align 8
  store ptr %27, ptr %19, align 8
  %28 = load ptr, ptr %11, align 8
  store ptr %28, ptr %20, align 8
  %29 = load ptr, ptr %15, align 8
  %30 = getelementptr inbounds %struct.SurfaceDataRasInfo, ptr %29, i32 0, i32 4
  %31 = load i32, ptr %30, align 8
  store i32 %31, ptr %21, align 4
  %32 = load ptr, ptr %16, align 8
  %33 = getelementptr inbounds %struct.SurfaceDataRasInfo, ptr %32, i32 0, i32 4
  %34 = load i32, ptr %33, align 8
  store i32 %34, ptr %22, align 4
  %35 = load i32, ptr %12, align 4
  %36 = mul i32 %35, 4
  %37 = load i32, ptr %21, align 4
  %38 = sub i32 %37, %36
  store i32 %38, ptr %21, align 4
  %39 = load i32, ptr %12, align 4
  %40 = mul i32 %39, 2
  %41 = load i32, ptr %22, align 4
  %42 = sub i32 %41, %40
  store i32 %42, ptr %22, align 4
  br label %43

43:                                               ; preds = %101, %26
  %44 = load i32, ptr %12, align 4
  store i32 %44, ptr %23, align 4
  br label %45

45:                                               ; preds = %84, %43
  br label %46

46:                                               ; preds = %45
  %47 = load ptr, ptr %19, align 8
  %48 = getelementptr inbounds i32, ptr %47, i64 0
  %49 = load i32, ptr %48, align 4
  store i32 %49, ptr %24, align 4
  %50 = load i32, ptr %24, align 4
  %51 = ashr i32 %50, 24
  %52 = icmp eq i32 %51, 0
  br i1 %52, label %53, label %58

53:                                               ; preds = %46
  %54 = load i32, ptr %14, align 4
  %55 = trunc i32 %54 to i16
  %56 = load ptr, ptr %20, align 8
  %57 = getelementptr inbounds i16, ptr %56, i64 0
  store i16 %55, ptr %57, align 2
  br label %74

58:                                               ; preds = %46
  %59 = load i32, ptr %24, align 4
  store i32 %59, ptr %25, align 4
  %60 = load i32, ptr %25, align 4
  %61 = ashr i32 %60, 9
  %62 = and i32 %61, 31744
  %63 = load i32, ptr %25, align 4
  %64 = ashr i32 %63, 6
  %65 = and i32 %64, 992
  %66 = or i32 %62, %65
  %67 = load i32, ptr %25, align 4
  %68 = ashr i32 %67, 3
  %69 = and i32 %68, 31
  %70 = or i32 %66, %69
  %71 = trunc i32 %70 to i16
  %72 = load ptr, ptr %20, align 8
  %73 = getelementptr inbounds i16, ptr %72, i64 0
  store i16 %71, ptr %73, align 2
  br label %74

74:                                               ; preds = %58, %53
  br label %75

75:                                               ; preds = %74
  %76 = load ptr, ptr %19, align 8
  %77 = ptrtoint ptr %76 to i64
  %78 = add nsw i64 %77, 4
  %79 = inttoptr i64 %78 to ptr
  store ptr %79, ptr %19, align 8
  %80 = load ptr, ptr %20, align 8
  %81 = ptrtoint ptr %80 to i64
  %82 = add nsw i64 %81, 2
  %83 = inttoptr i64 %82 to ptr
  store ptr %83, ptr %20, align 8
  br label %84

84:                                               ; preds = %75
  %85 = load i32, ptr %23, align 4
  %86 = add i32 %85, -1
  store i32 %86, ptr %23, align 4
  %87 = icmp ugt i32 %86, 0
  br i1 %87, label %45, label %88, !llvm.loop !47

88:                                               ; preds = %84
  %89 = load ptr, ptr %19, align 8
  %90 = ptrtoint ptr %89 to i64
  %91 = load i32, ptr %21, align 4
  %92 = sext i32 %91 to i64
  %93 = add nsw i64 %90, %92
  %94 = inttoptr i64 %93 to ptr
  store ptr %94, ptr %19, align 8
  %95 = load ptr, ptr %20, align 8
  %96 = ptrtoint ptr %95 to i64
  %97 = load i32, ptr %22, align 4
  %98 = sext i32 %97 to i64
  %99 = add nsw i64 %96, %98
  %100 = inttoptr i64 %99 to ptr
  store ptr %100, ptr %20, align 8
  br label %101

101:                                              ; preds = %88
  %102 = load i32, ptr %13, align 4
  %103 = add i32 %102, -1
  store i32 %103, ptr %13, align 4
  %104 = icmp ugt i32 %103, 0
  br i1 %104, label %43, label %105, !llvm.loop !48

105:                                              ; preds = %101
  br label %106

106:                                              ; preds = %105
  ret void
}